target datalayout = "e-m:e-p270:32:32-p271:32:32-p272:64:64-i64:64-i128:128-f80:128-n8:16:32:64-S128"
target triple = "x86_64-pc-linux-gnu"

%struct.Gia_Man_t_ = type { ptr, ptr, i32, i32, i32, i32, ptr, ptr, i32, i32, i32, ptr, ptr, %struct.Vec_Int_t_, %struct.Vec_Int_t_, i32, i32, i32, %struct.Vec_Int_t_, ptr, ptr, ptr, i32, i32, i32, i32, ptr, ptr, ptr, ptr, ptr, i32, i32, ptr, i32, ptr, ptr, ptr, ptr, ptr, ptr, ptr, ptr, ptr, ptr, ptr, ptr, ptr, ptr, ptr, ptr, ptr, ptr, %struct.Vec_Int_t_, %struct.Vec_Int_t_, ptr, ptr, ptr, ptr, ptr, ptr, ptr, ptr, ptr, ptr, ptr, ptr, ptr, ptr, ptr, ptr, ptr, ptr, ptr, ptr, ptr, i32, float, float, ptr, ptr, i32, ptr, ptr, ptr, ptr, ptr, ptr, ptr, ptr, ptr, ptr, ptr, ptr, ptr, ptr, ptr, i64, i64, ptr, ptr, i32, i32, i32, i32, i32, i32, i32, i32, i32, i32, i32, i32, ptr, ptr, ptr, ptr, ptr, ptr, ptr, ptr, i32, i32, i32, ptr, i32, i32, ptr, ptr, ptr, ptr, ptr, ptr, i32, i32, ptr, %struct.Vec_Int_t_, %struct.Vec_Int_t_, %struct.Vec_Int_t_, ptr, ptr, ptr }
%struct.Vec_Int_t_ = type { i32, i32, ptr }
%struct.Gia_Obj_t_ = type <{ i64, i32 }>

; Function Attrs: nounwind uwtable
define internal i32 @Vec_IntSize(ptr noundef %0) #0 {
  %2 = alloca ptr, align 8
  store ptr %0, ptr %2, align 8
  %3 = load ptr, ptr %2, align 8
  %4 = getelementptr inbounds %struct.Vec_Int_t_, ptr %3, i32 0, i32 1
  %5 = load i32, ptr %4, align 4
  ret i32 %5
}

; Function Attrs: nounwind uwtable
define internal ptr @Gia_ObjFanin1(ptr noundef %0) #0 {
  %2 = alloca ptr, align 8
  store ptr %0, ptr %2, align 8
  %3 = load ptr, ptr %2, align 8
  %4 = load ptr, ptr %2, align 8
  %5 = load i64, ptr %4, align 4
  %6 = lshr i64 %5, 32
  %7 = and i64 %6, 536870911
  %8 = trunc i64 %7 to i32
  %9 = sext i32 %8 to i64
  %10 = sub i64 0, %9
  %11 = getelementptr inbounds %struct.Gia_Obj_t_, ptr %3, i64 %10
  ret ptr %11
}

; Function Attrs: nounwind uwtable
define internal i32 @Gia_ObjFaninC1(ptr noundef %0) #0 {
  %2 = alloca ptr, align 8
  store ptr %0, ptr %2, align 8
  %3 = load ptr, ptr %2, align 8
  %4 = load i64, ptr %3, align 4
  %5 = lshr i64 %4, 61
  %6 = and i64 %5, 1
  %7 = trunc i64 %6 to i32
  ret i32 %7
}

; Function Attrs: nounwind uwtable
define internal i32 @Gia_ManPiNum(ptr noundef %0) #0 {
  %2 = alloca ptr, align 8
  store ptr %0, ptr %2, align 8
  %3 = load ptr, ptr %2, align 8
  %4 = getelementptr inbounds %struct.Gia_Man_t_, ptr %3, i32 0, i32 11
  %5 = load ptr, ptr %4, align 8
  %6 = call i32 @Vec_IntSize(ptr noundef %5)
  %7 = load ptr, ptr %2, align 8
  %8 = getelementptr inbounds %struct.Gia_Man_t_, ptr %7, i32 0, i32 2
  %9 = load i32, ptr %8, align 8
  %10 = sub nsw i32 %6, %9
  ret i32 %10
}

; Function Attrs: nounwind uwtable
define internal i32 @Gia_ObjCioId(ptr noundef %0) #0 {
  %2 = alloca ptr, align 8
  store ptr %0, ptr %2, align 8
  %3 = load ptr, ptr %2, align 8
  %4 = load i64, ptr %3, align 4
  %5 = lshr i64 %4, 32
  %6 = and i64 %5, 536870911
  %7 = trunc i64 %6 to i32
  ret i32 %7
}

; Function Attrs: nounwind uwtable
define internal i32 @Gia_ObjIsCi(ptr noundef %0) #0 {
  %2 = alloca ptr, align 8
  store ptr %0, ptr %2, align 8
  %3 = load ptr, ptr %2, align 8
  %4 = load i64, ptr %3, align 4
  %5 = lshr i64 %4, 31
  %6 = and i64 %5, 1
  %7 = trunc i64 %6 to i32
  %8 = icmp ne i32 %7, 0
  br i1 %8, label %9, label %15

9:                                                ; preds = %1
  %10 = load ptr, ptr %2, align 8
  %11 = load i64, ptr %10, align 4
  %12 = and i64 %11, 536870911
  %13 = trunc i64 %12 to i32
  %14 = icmp eq i32 %13, 536870911
  br label %15

15:                                               ; preds = %9, %1
  %16 = phi i1 [ false, %1 ], [ %14, %9 ]
  %17 = zext i1 %16 to i32
  ret i32 %17
}

; Function Attrs: nounwind uwtable
define internal ptr @Gia_ObjFanin0(ptr noundef %0) #0 {
  %2 = alloca ptr, align 8
  store ptr %0, ptr %2, align 8
  %3 = load ptr, ptr %2, align 8
  %4 = load ptr, ptr %2, align 8
  %5 = load i64, ptr %4, align 4
  %6 = and i64 %5, 536870911
  %7 = trunc i64 %6 to i32
  %8 = sext i32 %7 to i64
  %9 = sub i64 0, %8
  %10 = getelementptr inbounds %struct.Gia_Obj_t_, ptr %3, i64 %9
  ret ptr %10
}

; Function Attrs: nounwind uwtable
define internal i32 @Gia_ObjFaninC0(ptr noundef %0) #0 {
  %2 = alloca ptr, align 8
  store ptr %0, ptr %2, align 8
  %3 = load ptr, ptr %2, align 8
  %4 = load i64, ptr %3, align 4
  %5 = lshr i64 %4, 29
  %6 = and i64 %5, 1
  %7 = trunc i64 %6 to i32
  ret i32 %7
}

; Function Attrs: nounwind uwtable
define internal i32 @Gia_ObjIsAnd(ptr noundef %0) #0 {
  %2 = alloca ptr, align 8
  store ptr %0, ptr %2, align 8
  %3 = load ptr, ptr %2, align 8
  %4 = load i64, ptr %3, align 4
  %5 = lshr i64 %4, 31
  %6 = and i64 %5, 1
  %7 = trunc i64 %6 to i32
  %8 = icmp ne i32 %7, 0
  br i1 %8, label %15, label %9

9:                                                ; preds = %1
  %10 = load ptr, ptr %2, align 8
  %11 = load i64, ptr %10, align 4
  %12 = and i64 %11, 536870911
  %13 = trunc i64 %12 to i32
  %14 = icmp ne i32 %13, 536870911
  br label %15

15:                                               ; preds = %9, %1
  %16 = phi i1 [ false, %1 ], [ %14, %9 ]
  %17 = zext i1 %16 to i32
  ret i32 %17
}

; Function Attrs: nounwind uwtable
define internal ptr @Gia_ManObj(ptr noundef %0, i32 noundef %1) #0 {
  %3 = alloca ptr, align 8
  %4 = alloca i32, align 4
  store ptr %0, ptr %3, align 8
  store i32 %1, ptr %4, align 4
  %5 = load ptr, ptr %3, align 8
  %6 = getelementptr inbounds %struct.Gia_Man_t_, ptr %5, i32 0, i32 6
  %7 = load ptr, ptr %6, align 8
  %8 = load i32, ptr %4, align 4
  %9 = sext i32 %8 to i64
  %10 = getelementptr inbounds %struct.Gia_Obj_t_, ptr %7, i64 %9
  ret ptr %10
}

; Function Attrs: nounwind uwtable
define i64 @Gia_ManAutomInit(ptr noundef %0) #0 {
  %2 = alloca ptr, align 8
  %3 = alloca ptr, align 8
  %4 = alloca i32, align 4
  %5 = alloca i32, align 4
  %6 = alloca i64, align 8
  store ptr %0, ptr %2, align 8
  store i64 0, ptr %6, align 8
  store i32 0, ptr %4, align 4
  br label %7

7:                                                ; preds = %79, %1
  %8 = load i32, ptr %4, align 4
  %9 = load ptr, ptr %2, align 8
  %10 = getelementptr inbounds %struct.Gia_Man_t_, ptr %9, i32 0, i32 4
  %11 = load i32, ptr %10, align 8
  %12 = icmp slt i32 %8, %11
  br i1 %12, label %13, label %18

13:                                               ; preds = %7
  %14 = load ptr, ptr %2, align 8
  %15 = load i32, ptr %4, align 4
  %16 = call ptr @Gia_ManObj(ptr noundef %14, i32 noundef %15)
  store ptr %16, ptr %3, align 8
  %17 = icmp ne ptr %16, null
  br label %18

18:                                               ; preds = %13, %7
  %19 = phi i1 [ false, %7 ], [ %17, %13 ]
  br i1 %19, label %20, label %82

20:                                               ; preds = %18
  %21 = load ptr, ptr %3, align 8
  %22 = call i32 @Gia_ObjIsAnd(ptr noundef %21)
  %23 = icmp ne i32 %22, 0
  br i1 %23, label %25, label %24

24:                                               ; preds = %20
  br label %78

25:                                               ; preds = %20
  %26 = load ptr, ptr %3, align 8
  %27 = call i32 @Gia_ObjFaninC0(ptr noundef %26)
  %28 = icmp ne i32 %27, 0
  br i1 %28, label %29, label %51

29:                                               ; preds = %25
  %30 = load ptr, ptr %3, align 8
  %31 = call ptr @Gia_ObjFanin0(ptr noundef %30)
  %32 = call i32 @Gia_ObjIsCi(ptr noundef %31)
  %33 = icmp ne i32 %32, 0
  br i1 %33, label %34, label %51

34:                                               ; preds = %29
  %35 = load ptr, ptr %3, align 8
  %36 = call ptr @Gia_ObjFanin0(ptr noundef %35)
  %37 = call i32 @Gia_ObjCioId(ptr noundef %36)
  %38 = load ptr, ptr %2, align 8
  %39 = call i32 @Gia_ManPiNum(ptr noundef %38)
  %40 = sub nsw i32 %37, %39
  store i32 %40, ptr %5, align 4
  %41 = load i32, ptr %5, align 4
  %42 = icmp sge i32 %41, 0
  br i1 %42, label %43, label %50

43:                                               ; preds = %34
  %44 = load i32, ptr %5, align 4
  %45 = sub nsw i32 63, %44
  %46 = zext i32 %45 to i64
  %47 = shl i64 1, %46
  %48 = load i64, ptr %6, align 8
  %49 = or i64 %48, %47
  store i64 %49, ptr %6, align 8
  br label %50

50:                                               ; preds = %43, %34
  br label %51

51:                                               ; preds = %50, %29, %25
  %52 = load ptr, ptr %3, align 8
  %53 = call i32 @Gia_ObjFaninC1(ptr noundef %52)
  %54 = icmp ne i32 %53, 0
  br i1 %54, label %55, label %77

55:                                               ; preds = %51
  %56 = load ptr, ptr %3, align 8
  %57 = call ptr @Gia_ObjFanin1(ptr noundef %56)
  %58 = call i32 @Gia_ObjIsCi(ptr noundef %57)
  %59 = icmp ne i32 %58, 0
  br i1 %59, label %60, label %77

60:                                               ; preds = %55
  %61 = load ptr, ptr %3, align 8
  %62 = call ptr @Gia_ObjFanin1(ptr noundef %61)
  %63 = call i32 @Gia_ObjCioId(ptr noundef %62)
  %64 = load ptr, ptr %2, align 8
  %65 = call i32 @Gia_ManPiNum(ptr noundef %64)
  %66 = sub nsw i32 %63, %65
  store i32 %66, ptr %5, align 4
  %67 = load i32, ptr %5, align 4
  %68 = icmp sge i32 %67, 0
  br i1 %68, label %69, label %76

69:                                               ; preds = %60
  %70 = load i32, ptr %5, align 4
  %71 = sub nsw i32 63, %70
  %72 = zext i32 %71 to i64
  %73 = shl i64 1, %72
  %74 = load i64, ptr %6, align 8
  %75 = or i64 %74, %73
  store i64 %75, ptr %6, align 8
  br label %76

76:                                               ; preds = %69, %60
  br label %77

77:                                               ; preds = %76, %55, %51
  br label %78

78:                                               ; preds = %77, %24
  br label %79

79:                                               ; preds = %78
  %80 = load i32, ptr %4, align 4
  %81 = add nsw i32 %80, 1
  store i32 %81, ptr %4, align 4
  br label %7, !llvm.loop !38

82:                                               ; preds = %18
  %83 = load i64, ptr %6, align 8
  ret i64 %83
}