; Function Attrs: nofree norecurse nosync nounwind memory(read, inaccessiblemem: none) uwtable
define i64 @Gia_ManAutomInit(ptr noundef readonly captures(none) %0) local_unnamed_addr #11 {
  %2 = getelementptr inbounds nuw i8, ptr %0, i64 24
  %3 = load i32, ptr %2, align 8
  %4 = icmp sgt i32 %3, 0
  br i1 %4, label %.lr.ph, label %.critedge

.lr.ph:                                           ; preds = %1
  %5 = getelementptr i8, ptr %0, i64 32
  %.val32 = load ptr, ptr %5, align 8
  %.not = icmp eq ptr %.val32, null
  %6 = getelementptr i8, ptr %0, i64 16
  %7 = getelementptr i8, ptr %0, i64 64
  br i1 %.not, label %.critedge, label %.lr.ph.split.preheader

.lr.ph.split.preheader:                           ; preds = %.lr.ph
  %wide.trip.count = zext nneg i32 %3 to i64
  br label %.lr.ph.split

.lr.ph.split:                                     ; preds = %.lr.ph.split.preheader, %50
  %indvars.iv = phi i64 [ 0, %.lr.ph.split.preheader ], [ %indvars.iv.next, %50 ]
  %.045 = phi i64 [ 0, %.lr.ph.split.preheader ], [ %.2, %50 ]
  %8 = getelementptr inbounds nuw %struct.Gia_Obj_t_, ptr %.val32, i64 %indvars.iv
  %.val33 = load i64, ptr %8, align 4
  %9 = and i64 %.val33, 2147483648
  %.not.i = icmp ne i64 %9, 0
  %10 = and i64 %.val33, 536870911
  %11 = icmp eq i64 %10, 536870911
  %narrow.i.not = or i1 %.not.i, %11
  br i1 %narrow.i.not, label %50, label %12

12:                                               ; preds = %.lr.ph.split
  %13 = and i64 %.val33, 536870912
  %.not25 = icmp eq i64 %13, 0
  br i1 %.not25, label %30, label %14

14:                                               ; preds = %12
  %15 = sub nsw i64 0, %10
  %16 = getelementptr inbounds %struct.Gia_Obj_t_, ptr %8, i64 %15
  %.val36 = load i64, ptr %16, align 4
  %17 = and i64 %.val36, 2684354559
  %narrow.i40.not = icmp eq i64 %17, 2684354559
  br i1 %narrow.i40.not, label %18, label %30

18:                                               ; preds = %14
  %19 = lshr i64 %.val36, 32
  %20 = trunc nuw i64 %19 to i32
  %21 = and i32 %20, 536870911
  %.val30 = load i32, ptr %6, align 8
  %.val31 = load ptr, ptr %7, align 8
  %22 = getelementptr i8, ptr %.val31, i64 4
  %.val31.val = load i32, ptr %22, align 4
  %.neg = sub i32 %.val30, %.val31.val
  %23 = add i32 %.neg, %21
  %24 = icmp sgt i32 %23, -1
  br i1 %24, label %25, label %30

25:                                               ; preds = %18
  %26 = sub nsw i32 63, %23
  %27 = zext nneg i32 %26 to i64
  %28 = shl nuw i64 1, %27
  %29 = or i64 %28, %.045
  br label %30

30:                                               ; preds = %18, %25, %14, %12
  %.1 = phi i64 [ %29, %25 ], [ %.045, %18 ], [ %.045, %14 ], [ %.045, %12 ]
  %31 = and i64 %.val33, 2305843009213693952
  %.not27 = icmp eq i64 %31, 0
  br i1 %.not27, label %50, label %32

32:                                               ; preds = %30
  %33 = lshr i64 %.val33, 32
  %34 = and i64 %33, 536870911
  %35 = sub nsw i64 0, %34
  %36 = getelementptr inbounds %struct.Gia_Obj_t_, ptr %8, i64 %35
  %.val37 = load i64, ptr %36, align 4
  %37 = and i64 %.val37, 2684354559
  %narrow.i41.not = icmp eq i64 %37, 2684354559
  br i1 %narrow.i41.not, label %38, label %50

38:                                               ; preds = %32
  %39 = lshr i64 %.val37, 32
  %40 = trunc nuw i64 %39 to i32
  %41 = and i32 %40, 536870911
  %.val = load i32, ptr %6, align 8
  %.val29 = load ptr, ptr %7, align 8
  %42 = getelementptr i8, ptr %.val29, i64 4
  %.val29.val = load i32, ptr %42, align 4
  %.neg43 = sub i32 %.val, %.val29.val
  %43 = add i32 %.neg43, %41
  %44 = icmp sgt i32 %43, -1
  br i1 %44, label %45, label %50

45:                                               ; preds = %38
  %46 = sub nsw i32 63, %43
  %47 = zext nneg i32 %46 to i64
  %48 = shl nuw i64 1, %47
  %49 = or i64 %48, %.1
  br label %50

50:                                               ; preds = %.lr.ph.split, %38, %45, %32, %30
  %.2 = phi i64 [ %49, %45 ], [ %.1, %38 ], [ %.1, %32 ], [ %.1, %30 ], [ %.045, %.lr.ph.split ]
  %indvars.iv.next = add nuw nsw i64 %indvars.iv, 1
  %exitcond.not = icmp eq i64 %indvars.iv.next, %wide.trip.count
  br i1 %exitcond.not, label %.critedge, label %.lr.ph.split, !llvm.loop !35

.critedge:                                        ; preds = %50, %.lr.ph, %1
  %.0.lcssa = phi i64 [ 0, %1 ], [ 0, %.lr.ph ], [ %.2, %50 ]
  ret i64 %.0.lcssa
}